; Function Attrs: mustprogress uwtable
define dso_local noundef zeroext i1 @_ZN17cmQtAutoGenerator5InfoT12GetJsonArrayERSt13unordered_setINSt7__cxx1112basic_stringIcSt11char_traitsIcESaIcEEESt4hashIS7_ESt8equal_toIS7_ESaIS7_EERKN4Json5ValueE(ptr noundef nonnull align 8 dereferenceable(56) %0, ptr noundef nonnull align 8 dereferenceable(40) %1) local_unnamed_addr #3 align 2 personality ptr @__gxx_personality_v0 {
  %3 = alloca %"class.std::__cxx11::basic_string", align 8
  %4 = tail call noundef i32 @_ZNK4Json5Value4sizeEv(ptr noundef nonnull align 8 dereferenceable(40) %1)
  %5 = icmp eq i32 %4, 0
  br i1 %5, label %30, label %6

6:                                                ; preds = %2
  %7 = getelementptr inbounds i8, ptr %0, i64 24
  %8 = load i64, ptr %7, align 8
  %9 = zext i32 %4 to i64
  %10 = add i64 %8, %9
  %11 = getelementptr inbounds i8, ptr %0, i64 32
  %12 = uitofp i64 %10 to double
  %13 = load float, ptr %11, align 8
  %14 = fpext float %13 to double
  %15 = fdiv double %12, %14
  %16 = tail call double @llvm.ceil.f64(double %15)
  %17 = fptoui double %16 to i64
  tail call void @_ZNSt10_HashtableINSt7__cxx1112basic_stringIcSt11char_traitsIcESaIcEEES5_SaIS5_ENSt8__detail9_IdentityESt8equal_toIS5_ESt4hashIS5_ENS7_18_Mod_range_hashingENS7_20_Default_ranged_hashENS7_20_Prime_rehash_policyENS7_17_Hashtable_traitsILb1ELb1ELb1EEEE6rehashEm(ptr noundef nonnull align 8 dereferenceable(56) %0, i64 noundef %17)
  br label %18

18:                                               ; preds = %6, %25
  %.01621 = phi i8 [ 0, %6 ], [ %.1, %25 ]
  %.01720 = phi i32 [ 0, %6 ], [ %26, %25 ]
  %19 = call noundef nonnull align 8 dereferenceable(40) ptr @_ZNK4Json5ValueixEj(ptr noundef nonnull align 8 dereferenceable(40) %1, i32 noundef %.01720)
  %20 = call noundef zeroext i1 @_ZNK4Json5Value8isStringEv(ptr noundef nonnull align 8 dereferenceable(40) %19)
  br i1 %20, label %21, label %25

21:                                               ; preds = %18
  call void @_ZNK4Json5Value8asStringB5cxx11Ev(ptr dead_on_unwind nonnull writable sret(%"class.std::__cxx11::basic_string") align 8 %3, ptr noundef nonnull align 8 dereferenceable(40) %19)
  %22 = invoke { ptr, i8 } @_ZNSt10_HashtableINSt7__cxx1112basic_stringIcSt11char_traitsIcESaIcEEES5_SaIS5_ENSt8__detail9_IdentityESt8equal_toIS5_ESt4hashIS5_ENS7_18_Mod_range_hashingENS7_20_Default_ranged_hashENS7_20_Prime_rehash_policyENS7_17_Hashtable_traitsILb1ELb1ELb1EEEE10_M_emplaceIJS5_EEESt4pairINS7_14_Node_iteratorIS5_Lb1ELb1EEEbESt17integral_constantIbLb1EEDpOT_(ptr noundef nonnull align 8 dereferenceable(56) %0, ptr noundef nonnull align 8 dereferenceable(32) %3)
          to label %_ZNSt13unordered_setINSt7__cxx1112basic_stringIcSt11char_traitsIcESaIcEEESt4hashIS5_ESt8equal_toIS5_ESaIS5_EE7emplaceIJS5_EEESt4pairINSt8__detail14_Node_iteratorIS5_Lb1ELb1EEEbEDpOT_.exit unwind label %23

_ZNSt13unordered_setINSt7__cxx1112basic_stringIcSt11char_traitsIcESaIcEEESt4hashIS5_ESt8equal_toIS5_ESaIS5_EE7emplaceIJS5_EEESt4pairINSt8__detail14_Node_iteratorIS5_Lb1ELb1EEEbEDpOT_.exit: ; preds = %21
  call void @_ZNSt7__cxx1112basic_stringIcSt11char_traitsIcESaIcEED1Ev(ptr noundef nonnull align 8 dereferenceable(32) %3) #21
  br label %25

23:                                               ; preds = %21
  %24 = landingpad { ptr, i32 }
          cleanup
  call void @_ZNSt7__cxx1112basic_stringIcSt11char_traitsIcESaIcEED1Ev(ptr noundef nonnull align 8 dereferenceable(32) %3) #21
  resume { ptr, i32 } %24

25:                                               ; preds = %18, %_ZNSt13unordered_setINSt7__cxx1112basic_stringIcSt11char_traitsIcESaIcEEESt4hashIS5_ESt8equal_toIS5_ESaIS5_EE7emplaceIJS5_EEESt4pairINSt8__detail14_Node_iteratorIS5_Lb1ELb1EEEbEDpOT_.exit
  %.1 = phi i8 [ 1, %_ZNSt13unordered_setINSt7__cxx1112basic_stringIcSt11char_traitsIcESaIcEEESt4hashIS5_ESt8equal_toIS5_ESaIS5_EE7emplaceIJS5_EEESt4pairINSt8__detail14_Node_iteratorIS5_Lb1ELb1EEEbEDpOT_.exit ], [ %.01621, %18 ]
  %26 = add nuw i32 %.01720, 1
  %.not = icmp eq i32 %26, %4
  br i1 %.not, label %27, label %18, !llvm.loop !153

27:                                               ; preds = %25
  %28 = and i8 %.1, 1
  %29 = icmp ne i8 %28, 0
  br label %30

30:                                               ; preds = %2, %27
  %.0 = phi i1 [ %29, %27 ], [ false, %2 ]
  ret i1 %.0
}